target datalayout = "e-m:e-p270:32:32-p271:32:32-p272:64:64-i64:64-i128:128-f80:128-n8:16:32:64-S128"
target triple = "x86_64-pc-linux-gnu"

%"class.std::__cxx11::basic_string" = type { %"struct.std::__cxx11::basic_string<char>::_Alloc_hider", i64, %union.anon }
%"struct.std::__cxx11::basic_string<char>::_Alloc_hider" = type { ptr }
%union.anon = type { i64, [8 x i8] }
%"class.llvm::LLLexer" = type <{ ptr, %"class.llvm::StringRef", ptr, ptr, ptr, ptr, i32, [4 x i8], %"class.std::__cxx11::basic_string", i32, [4 x i8], ptr, %"class.llvm::APFloat", %"class.llvm::APSInt", i8, [7 x i8] }>
%"class.llvm::StringRef" = type { ptr, i64 }
%"class.llvm::APFloat" = type { [8 x i8], %"union.llvm::APFloat::Storage" }
%"union.llvm::APFloat::Storage" = type { %"class.llvm::detail::DoubleAPFloat", [8 x i8] }
%"class.llvm::detail::DoubleAPFloat" = type { ptr, %"class.std::unique_ptr" }
%"class.std::unique_ptr" = type { %"struct.std::__uniq_ptr_data" }
%"struct.std::__uniq_ptr_data" = type { %"class.std::__uniq_ptr_impl" }
%"class.std::__uniq_ptr_impl" = type { %"class.std::tuple" }
%"class.std::tuple" = type { %"struct.std::_Tuple_impl" }
%"struct.std::_Tuple_impl" = type { %"struct.std::_Head_base.4" }
%"struct.std::_Head_base.4" = type { ptr }
%"class.llvm::APSInt" = type { %"class.llvm::APInt.base", i8, [3 x i8] }
%"class.llvm::APInt.base" = type <{ %union.anon.5, i32 }>
%union.anon.5 = type { i64 }
%"class.llvm::detail::IEEEFloat" = type <{ ptr, %"union.llvm::detail::IEEEFloat::Significand", i32, i8, [3 x i8] }>
%"union.llvm::detail::IEEEFloat::Significand" = type { i64 }
%"class.llvm::APInt" = type <{ %union.anon.5, i32, [4 x i8] }>

; Function Attrs: mustprogress nounwind uwtable
define linkonce_odr hidden noundef i32 @_ZN4llvm5APInt11getNumWordsEj(i32 noundef %0) #0 comdat align 2 {
  %2 = alloca i32, align 4
  store i32 %0, ptr %2, align 4
  %3 = load i32, ptr %2, align 4
  %4 = zext i32 %3 to i64
  %5 = add i64 %4, 64
  %6 = sub i64 %5, 1
  %7 = udiv i64 %6, 64
  %8 = trunc i64 %7 to i32
  ret i32 %8
}

; Function Attrs: mustprogress nounwind uwtable
define linkonce_odr hidden noundef i32 @_ZNK4llvm5APInt11getNumWordsEv(ptr noundef nonnull align 8 dereferenceable(12) %0) #0 comdat align 2 {
  %2 = alloca ptr, align 8
  store ptr %0, ptr %2, align 8
  %3 = load ptr, ptr %2, align 8
  %4 = getelementptr inbounds nuw %"class.llvm::APInt", ptr %3, i32 0, i32 1
  %5 = load i32, ptr %4, align 8
  %6 = call noundef i32 @_ZN4llvm5APInt11getNumWordsEj(i32 noundef %5)
  ret i32 %6
}

; Function Attrs: mustprogress nounwind uwtable
define linkonce_odr hidden noundef nonnull align 8 dereferenceable(12) ptr @_ZN4llvm5APInt15clearUnusedBitsEv(ptr noundef nonnull align 8 dereferenceable(12) %0) #0 comdat align 2 {
  %2 = alloca ptr, align 8
  %3 = alloca i32, align 4
  %4 = alloca i64, align 8
  store ptr %0, ptr %2, align 8
  %5 = load ptr, ptr %2, align 8
  %6 = getelementptr inbounds nuw %"class.llvm::APInt", ptr %5, i32 0, i32 1
  %7 = load i32, ptr %6, align 8
  %8 = sub i32 %7, 1
  %9 = urem i32 %8, 64
  %10 = add i32 %9, 1
  store i32 %10, ptr %3, align 4
  %11 = load i32, ptr %3, align 4
  %12 = sub i32 64, %11
  %13 = zext i32 %12 to i64
  %14 = lshr i64 -1, %13
  store i64 %14, ptr %4, align 8
  %15 = getelementptr inbounds nuw %"class.llvm::APInt", ptr %5, i32 0, i32 1
  %16 = load i32, ptr %15, align 8
  %17 = icmp eq i32 %16, 0
  br i1 %17, label %18, label %19

18:                                               ; preds = %1
  store i64 0, ptr %4, align 8
  br label %19

19:                                               ; preds = %18, %1
  %20 = call noundef zeroext i1 @_ZNK4llvm5APInt12isSingleWordEv(ptr noundef nonnull align 8 dereferenceable(12) %5)
  br i1 %20, label %21, label %26

21:                                               ; preds = %19
  %22 = load i64, ptr %4, align 8
  %23 = getelementptr inbounds nuw %"class.llvm::APInt", ptr %5, i32 0, i32 0
  %24 = load i64, ptr %23, align 8
  %25 = and i64 %24, %22
  store i64 %25, ptr %23, align 8
  br label %36

26:                                               ; preds = %19
  %27 = load i64, ptr %4, align 8
  %28 = getelementptr inbounds nuw %"class.llvm::APInt", ptr %5, i32 0, i32 0
  %29 = load ptr, ptr %28, align 8
  %30 = call noundef i32 @_ZNK4llvm5APInt11getNumWordsEv(ptr noundef nonnull align 8 dereferenceable(12) %5)
  %31 = sub i32 %30, 1
  %32 = zext i32 %31 to i64
  %33 = getelementptr inbounds i64, ptr %29, i64 %32
  %34 = load i64, ptr %33, align 8
  %35 = and i64 %34, %27
  store i64 %35, ptr %33, align 8
  br label %36

36:                                               ; preds = %26, %21
  ret ptr %5
}

; Function Attrs: mustprogress nounwind uwtable
define linkonce_odr hidden noundef zeroext i1 @_ZNK4llvm5APInt12isSingleWordEv(ptr noundef nonnull align 8 dereferenceable(12) %0) #0 comdat align 2 {
  %2 = alloca ptr, align 8
  store ptr %0, ptr %2, align 8
  %3 = load ptr, ptr %2, align 8
  %4 = getelementptr inbounds nuw %"class.llvm::APInt", ptr %3, i32 0, i32 1
  %5 = load i32, ptr %4, align 8
  %6 = icmp ule i32 %5, 64
  ret i1 %6
}

; Function Attrs: mustprogress nounwind uwtable
define linkonce_odr hidden void @_ZN4llvm5APIntC2Ejmbb(ptr noundef nonnull align 8 dereferenceable(12) %0, i32 noundef %1, i64 noundef %2, i1 noundef zeroext %3, i1 noundef zeroext %4) unnamed_addr #0 comdat align 2 {
  %6 = alloca ptr, align 8
  %7 = alloca i32, align 4
  %8 = alloca i64, align 8
  %9 = alloca i8, align 1
  %10 = alloca i8, align 1
  store ptr %0, ptr %6, align 8
  store i32 %1, ptr %7, align 4
  store i64 %2, ptr %8, align 8
  %11 = zext i1 %3 to i8
  store i8 %11, ptr %9, align 1
  %12 = zext i1 %4 to i8
  store i8 %12, ptr %10, align 1
  %13 = load ptr, ptr %6, align 8
  %14 = getelementptr inbounds nuw %"class.llvm::APInt", ptr %13, i32 0, i32 1
  %15 = load i32, ptr %7, align 4
  store i32 %15, ptr %14, align 8
  %16 = load i8, ptr %10, align 1
  %17 = trunc i8 %16 to i1
  br i1 %17, label %30, label %18

18:                                               ; preds = %5
  %19 = getelementptr inbounds nuw %"class.llvm::APInt", ptr %13, i32 0, i32 1
  %20 = load i32, ptr %19, align 8
  %21 = icmp eq i32 %20, 0
  br i1 %21, label %22, label %23

22:                                               ; preds = %18
  br label %29

23:                                               ; preds = %18
  %24 = load i8, ptr %9, align 1
  %25 = trunc i8 %24 to i1
  br i1 %25, label %26, label %27

26:                                               ; preds = %23
  br label %28

27:                                               ; preds = %23
  br label %28

28:                                               ; preds = %27, %26
  br label %29

29:                                               ; preds = %28, %22
  br label %30

30:                                               ; preds = %29, %5
  %31 = call noundef zeroext i1 @_ZNK4llvm5APInt12isSingleWordEv(ptr noundef nonnull align 8 dereferenceable(12) %13)
  br i1 %31, label %32, label %43

32:                                               ; preds = %30
  %33 = load i64, ptr %8, align 8
  %34 = getelementptr inbounds nuw %"class.llvm::APInt", ptr %13, i32 0, i32 0
  store i64 %33, ptr %34, align 8
  %35 = load i8, ptr %10, align 1
  %36 = trunc i8 %35 to i1
  br i1 %36, label %40, label %37

37:                                               ; preds = %32
  %38 = load i8, ptr %9, align 1
  %39 = trunc i8 %38 to i1
  br i1 %39, label %40, label %42

40:                                               ; preds = %37, %32
  %41 = call noundef nonnull align 8 dereferenceable(12) ptr @_ZN4llvm5APInt15clearUnusedBitsEv(ptr noundef nonnull align 8 dereferenceable(12) %13)
  br label %42

42:                                               ; preds = %40, %37
  br label %47

43:                                               ; preds = %30
  %44 = load i64, ptr %8, align 8
  %45 = load i8, ptr %9, align 1
  %46 = trunc i8 %45 to i1
  call void @_ZN4llvm5APInt12initSlowCaseEmb(ptr noundef nonnull align 8 dereferenceable(12) %13, i64 noundef %44, i1 noundef zeroext %46)
  br label %47

47:                                               ; preds = %43, %42
  ret void
}

; Function Attrs: mustprogress nounwind uwtable
define linkonce_odr hidden noundef ptr @_ZNK4llvm9StringRef5beginEv(ptr noundef nonnull align 8 dereferenceable(16) %0) #0 comdat align 2 {
  %2 = alloca ptr, align 8
  store ptr %0, ptr %2, align 8
  %3 = load ptr, ptr %2, align 8
  %4 = getelementptr inbounds nuw %"class.llvm::StringRef", ptr %3, i32 0, i32 0
  %5 = load ptr, ptr %4, align 8
  ret ptr %5
}

; Function Attrs: mustprogress nounwind uwtable
define linkonce_odr hidden void @_ZN4llvm6APSIntC2Ejb(ptr noundef nonnull align 8 dereferenceable(13) %0, i32 noundef %1, i1 noundef zeroext %2) unnamed_addr #0 comdat align 2 {
  %4 = alloca ptr, align 8
  %5 = alloca i32, align 4
  %6 = alloca i8, align 1
  store ptr %0, ptr %4, align 8
  store i32 %1, ptr %5, align 4
  %7 = zext i1 %2 to i8
  store i8 %7, ptr %6, align 1
  %8 = load ptr, ptr %4, align 8
  %9 = load i32, ptr %5, align 4
  call void @_ZN4llvm5APIntC2Ejmbb(ptr noundef nonnull align 8 dereferenceable(12) %8, i32 noundef %9, i64 noundef 0, i1 noundef zeroext false, i1 noundef zeroext true)
  %10 = getelementptr inbounds nuw %"class.llvm::APSInt", ptr %8, i32 0, i32 1
  %11 = load i8, ptr %6, align 1
  %12 = trunc i8 %11 to i1
  %13 = zext i1 %12 to i8
  store i8 %13, ptr %10, align 4
  ret void
}

; Function Attrs: mustprogress nounwind uwtable
define linkonce_odr hidden void @_ZN4llvm7APFloatC2Ed(ptr noundef nonnull align 8 dereferenceable(32) %0, double noundef %1) unnamed_addr #0 comdat align 2 {
  %3 = alloca ptr, align 8
  %4 = alloca double, align 8
  %5 = alloca %"class.llvm::detail::IEEEFloat", align 8
  store ptr %0, ptr %3, align 8
  store double %1, ptr %4, align 8
  %6 = load ptr, ptr %3, align 8
  %7 = getelementptr inbounds nuw %"class.llvm::APFloat", ptr %6, i32 0, i32 1
  %8 = load double, ptr %4, align 8
  call void @_ZN4llvm6detail9IEEEFloatC1Ed(ptr noundef nonnull align 8 dereferenceable(24) %5, double noundef %8)
  %9 = call noundef nonnull align 1 ptr @_ZN4llvm11APFloatBase10IEEEdoubleEv() #10
  call void @_ZN4llvm7APFloat7StorageC1ENS_6detail9IEEEFloatERKNS_12fltSemanticsE(ptr noundef nonnull align 8 dereferenceable(24) %7, ptr noundef %5, ptr noundef nonnull align 1 %9)
  call void @_ZN4llvm6detail9IEEEFloatD1Ev(ptr noundef nonnull align 8 dereferenceable(24) %5) #9
  ret void
}

; Function Attrs: mustprogress nounwind uwtable
define dso_local void @_ZN4llvm7LLLexerC2ENS_9StringRefERNS_9SourceMgrERNS_12SMDiagnosticERNS_11LLVMContextE(ptr noundef nonnull align 8 dereferenceable(161) %0, ptr %1, i64 %2, ptr noundef nonnull align 8 dereferenceable(64) %3, ptr noundef nonnull align 8 dereferenceable(360) %4, ptr noundef nonnull align 8 dereferenceable(8) %5) unnamed_addr #0 align 2 {
  %7 = alloca %"class.llvm::StringRef", align 8
  %8 = alloca ptr, align 8
  %9 = alloca ptr, align 8
  %10 = alloca ptr, align 8
  %11 = alloca ptr, align 8
  %12 = getelementptr inbounds nuw { ptr, i64 }, ptr %7, i32 0, i32 0
  store ptr %1, ptr %12, align 8
  %13 = getelementptr inbounds nuw { ptr, i64 }, ptr %7, i32 0, i32 1
  store i64 %2, ptr %13, align 8
  store ptr %0, ptr %8, align 8
  store ptr %3, ptr %9, align 8
  store ptr %4, ptr %10, align 8
  store ptr %5, ptr %11, align 8
  %14 = load ptr, ptr %8, align 8
  %15 = getelementptr inbounds nuw %"class.llvm::LLLexer", ptr %14, i32 0, i32 1
  call void @llvm.memcpy.p0.p0.i64(ptr align 8 %15, ptr align 8 %7, i64 16, i1 false)
  %16 = getelementptr inbounds nuw %"class.llvm::LLLexer", ptr %14, i32 0, i32 2
  %17 = load ptr, ptr %10, align 8
  store ptr %17, ptr %16, align 8
  %18 = getelementptr inbounds nuw %"class.llvm::LLLexer", ptr %14, i32 0, i32 3
  %19 = load ptr, ptr %9, align 8
  store ptr %19, ptr %18, align 8
  %20 = getelementptr inbounds nuw %"class.llvm::LLLexer", ptr %14, i32 0, i32 4
  %21 = load ptr, ptr %11, align 8
  store ptr %21, ptr %20, align 8
  %22 = getelementptr inbounds nuw %"class.llvm::LLLexer", ptr %14, i32 0, i32 8
  call void @_ZNSt7__cxx1112basic_stringIcSt11char_traitsIcESaIcEEC1Ev(ptr noundef nonnull align 8 dereferenceable(32) %22) #9
  %23 = getelementptr inbounds nuw %"class.llvm::LLLexer", ptr %14, i32 0, i32 9
  store i32 0, ptr %23, align 8
  %24 = getelementptr inbounds nuw %"class.llvm::LLLexer", ptr %14, i32 0, i32 11
  store ptr null, ptr %24, align 8
  %25 = getelementptr inbounds nuw %"class.llvm::LLLexer", ptr %14, i32 0, i32 12
  call void @_ZN4llvm7APFloatC2Ed(ptr noundef nonnull align 8 dereferenceable(32) %25, double noundef 0.000000e+00)
  %26 = getelementptr inbounds nuw %"class.llvm::LLLexer", ptr %14, i32 0, i32 13
  call void @_ZN4llvm6APSIntC2Ejb(ptr noundef nonnull align 8 dereferenceable(13) %26, i32 noundef 0, i1 noundef zeroext true)
  %27 = getelementptr inbounds nuw %"class.llvm::LLLexer", ptr %14, i32 0, i32 14
  store i8 0, ptr %27, align 8
  %28 = getelementptr inbounds nuw %"class.llvm::LLLexer", ptr %14, i32 0, i32 1
  %29 = call noundef ptr @_ZNK4llvm9StringRef5beginEv(ptr noundef nonnull align 8 dereferenceable(16) %28)
  %30 = getelementptr inbounds nuw %"class.llvm::LLLexer", ptr %14, i32 0, i32 0
  store ptr %29, ptr %30, align 8
  ret void
}