; Function Attrs: mustprogress nounwind uwtable
define dso_local void @_ZN4llvm7LLLexerC2ENS_9StringRefERNS_9SourceMgrERNS_12SMDiagnosticERNS_11LLVMContextE(ptr noundef nonnull align 8 dereferenceable(161) %0, ptr %1, i64 %2, ptr noundef nonnull align 8 dereferenceable(64) %3, ptr noundef nonnull align 8 dereferenceable(360) %4, ptr noundef nonnull align 8 dereferenceable(8) %5) unnamed_addr #0 align 2 {
  %7 = alloca %"class.llvm::detail::IEEEFloat", align 8
  %8 = getelementptr inbounds nuw i8, ptr %0, i64 8
  store ptr %1, ptr %8, align 8
  %.sroa.2.0..sroa_idx = getelementptr inbounds i8, ptr %0, i64 16
  store i64 %2, ptr %.sroa.2.0..sroa_idx, align 8
  %9 = getelementptr inbounds nuw i8, ptr %0, i64 24
  store ptr %4, ptr %9, align 8
  %10 = getelementptr inbounds nuw i8, ptr %0, i64 32
  store ptr %3, ptr %10, align 8
  %11 = getelementptr inbounds nuw i8, ptr %0, i64 40
  store ptr %5, ptr %11, align 8
  %12 = getelementptr inbounds nuw i8, ptr %0, i64 64
  tail call void @_ZNSt7__cxx1112basic_stringIcSt11char_traitsIcESaIcEEC1Ev(ptr noundef nonnull align 8 dereferenceable(32) %12) #15
  %13 = getelementptr inbounds nuw i8, ptr %0, i64 96
  store i32 0, ptr %13, align 8
  %14 = getelementptr inbounds nuw i8, ptr %0, i64 104
  store ptr null, ptr %14, align 8
  call void @llvm.lifetime.start.p0(i64 24, ptr nonnull %7)
  %15 = getelementptr inbounds i8, ptr %0, i64 120
  call void @_ZN4llvm6detail9IEEEFloatC1Ed(ptr noundef nonnull align 8 dereferenceable(24) %7, double noundef 0.000000e+00) #15
  %16 = tail call noundef nonnull align 1 ptr @_ZN4llvm11APFloatBase10IEEEdoubleEv() #17
  call void @_ZN4llvm7APFloat7StorageC1ENS_6detail9IEEEFloatERKNS_12fltSemanticsE(ptr noundef nonnull align 8 dereferenceable(24) %15, ptr noundef nonnull %7, ptr noundef nonnull align 1 %16) #15
  call void @_ZN4llvm6detail9IEEEFloatD1Ev(ptr noundef nonnull align 8 dereferenceable(24) %7) #15
  call void @llvm.lifetime.end.p0(i64 24, ptr nonnull %7)
  %17 = getelementptr inbounds nuw i8, ptr %0, i64 144
  %18 = getelementptr inbounds i8, ptr %0, i64 152
  store i32 0, ptr %18, align 8
  store i64 0, ptr %17, align 8
  %19 = getelementptr inbounds i8, ptr %0, i64 156
  store i8 1, ptr %19, align 4
  %20 = getelementptr inbounds nuw i8, ptr %0, i64 160
  store i8 0, ptr %20, align 8
  %21 = load ptr, ptr %8, align 8
  store ptr %21, ptr %0, align 8
  ret void
}